target datalayout = "e-m:e-p270:32:32-p271:32:32-p272:64:64-i64:64-i128:128-f80:128-n8:16:32:64-S128"
target triple = "x86_64-unknown-linux-gnu"

%"class.Assimp::PlyExporter" = type { %"class.std::__cxx11::basic_ostringstream", %"class.std::__cxx11::basic_string", %"class.std::__cxx11::basic_string" }
%"class.std::__cxx11::basic_ostringstream" = type { %"class.std::basic_ostream.base", %"class.std::__cxx11::basic_stringbuf", %"class.std::basic_ios" }
%"class.std::basic_ostream.base" = type { ptr }
%"class.std::__cxx11::basic_stringbuf" = type { %"class.std::basic_streambuf", i32, %"class.std::__cxx11::basic_string" }
%"class.std::basic_streambuf" = type { ptr, ptr, ptr, ptr, ptr, ptr, ptr, %"class.std::locale" }
%"class.std::locale" = type { ptr }
%"class.std::basic_ios" = type { %"class.std::ios_base", ptr, i8, i8, ptr, ptr, ptr, ptr }
%"class.std::ios_base" = type { ptr, i64, i64, i32, i32, i32, ptr, %"struct.std::ios_base::_Words", [8 x %"struct.std::ios_base::_Words"], i32, ptr, %"class.std::locale" }
%"struct.std::ios_base::_Words" = type { ptr, i64 }
%"class.std::__cxx11::basic_string" = type { %"struct.std::__cxx11::basic_string<char>::_Alloc_hider", i64, %union.anon }
%"struct.std::__cxx11::basic_string<char>::_Alloc_hider" = type { ptr }
%union.anon = type { i64, [8 x i8] }
%struct.aiString = type { i32, [1024 x i8] }
%struct.aiMesh = type { i32, i32, i32, ptr, ptr, ptr, ptr, [8 x ptr], [8 x ptr], [8 x i32], ptr, i32, ptr, i32, %struct.aiString, i32, ptr, i32, %struct.aiAABB, ptr }
%struct.aiAABB = type { %class.aiVector3t, %class.aiVector3t }
%class.aiVector3t = type { float, float, float }
%struct.aiFace = type { i32, ptr }

@.str.39 = private unnamed_addr constant [2 x i8] c" \00", align 1

; Function Attrs: mustprogress uwtable
define hidden void @_ZN6Assimp11PlyExporter16WriteMeshIndicesEPK6aiMeshj(ptr noundef nonnull align 8 dereferenceable(440) %this, ptr noundef %m, i32 noundef %offset) #2 align 2 {
entry:
  %this.addr = alloca ptr, align 8
  %m.addr = alloca ptr, align 8
  %offset.addr = alloca i32, align 4
  %i = alloca i32, align 4
  %f = alloca ptr, align 8
  %c = alloca i32, align 4
  store ptr %this, ptr %this.addr, align 8
  store ptr %m, ptr %m.addr, align 8
  store i32 %offset, ptr %offset.addr, align 4
  %this1 = load ptr, ptr %this.addr, align 8
  store i32 0, ptr %i, align 4
  br label %for.cond

for.cond:                                         ; preds = %for.inc13, %entry
  %0 = load i32, ptr %i, align 4
  %1 = load ptr, ptr %m.addr, align 8
  %mNumFaces = getelementptr inbounds %struct.aiMesh, ptr %1, i32 0, i32 2
  %2 = load i32, ptr %mNumFaces, align 8
  %cmp = icmp ult i32 %0, %2
  br i1 %cmp, label %for.body, label %for.end15

for.body:                                         ; preds = %for.cond
  %3 = load ptr, ptr %m.addr, align 8
  %mFaces = getelementptr inbounds %struct.aiMesh, ptr %3, i32 0, i32 10
  %4 = load ptr, ptr %mFaces, align 8
  %5 = load i32, ptr %i, align 4
  %idxprom = zext i32 %5 to i64
  %arrayidx = getelementptr inbounds %struct.aiFace, ptr %4, i64 %idxprom
  store ptr %arrayidx, ptr %f, align 8
  %mOutput = getelementptr inbounds %"class.Assimp::PlyExporter", ptr %this1, i32 0, i32 0
  %6 = load ptr, ptr %f, align 8
  %mNumIndices = getelementptr inbounds %struct.aiFace, ptr %6, i32 0, i32 0
  %7 = load i32, ptr %mNumIndices, align 8
  %call = call noundef nonnull align 8 dereferenceable(8) ptr @_ZNSolsEj(ptr noundef nonnull align 8 dereferenceable(8) %mOutput, i32 noundef %7)
  store i32 0, ptr %c, align 4
  br label %for.cond2

for.cond2:                                        ; preds = %for.inc, %for.body
  %8 = load i32, ptr %c, align 4
  %9 = load ptr, ptr %f, align 8
  %mNumIndices3 = getelementptr inbounds %struct.aiFace, ptr %9, i32 0, i32 0
  %10 = load i32, ptr %mNumIndices3, align 8
  %cmp4 = icmp ult i32 %8, %10
  br i1 %cmp4, label %for.body5, label %for.end

for.body5:                                        ; preds = %for.cond2
  %mOutput6 = getelementptr inbounds %"class.Assimp::PlyExporter", ptr %this1, i32 0, i32 0
  %call7 = call noundef nonnull align 8 dereferenceable(8) ptr @_ZStlsISt11char_traitsIcEERSt13basic_ostreamIcT_ES5_PKc(ptr noundef nonnull align 8 dereferenceable(8) %mOutput6, ptr noundef @.str.39)
  %11 = load ptr, ptr %f, align 8
  %mIndices = getelementptr inbounds %struct.aiFace, ptr %11, i32 0, i32 1
  %12 = load ptr, ptr %mIndices, align 8
  %13 = load i32, ptr %c, align 4
  %idxprom8 = zext i32 %13 to i64
  %arrayidx9 = getelementptr inbounds i32, ptr %12, i64 %idxprom8
  %14 = load i32, ptr %arrayidx9, align 4
  %15 = load i32, ptr %offset.addr, align 4
  %add = add i32 %14, %15
  %call10 = call noundef nonnull align 8 dereferenceable(8) ptr @_ZNSolsEj(ptr noundef nonnull align 8 dereferenceable(8) %call7, i32 noundef %add)
  br label %for.inc

for.inc:                                          ; preds = %for.body5
  %16 = load i32, ptr %c, align 4
  %inc = add i32 %16, 1
  store i32 %inc, ptr %c, align 4
  br label %for.cond2, !llvm.loop !19

for.end:                                          ; preds = %for.cond2
  %mOutput11 = getelementptr inbounds %"class.Assimp::PlyExporter", ptr %this1, i32 0, i32 0
  %endl = getelementptr inbounds %"class.Assimp::PlyExporter", ptr %this1, i32 0, i32 2
  %call12 = call noundef nonnull align 8 dereferenceable(8) ptr @_ZStlsIcSt11char_traitsIcESaIcEERSt13basic_ostreamIT_T0_ES7_RKNSt7__cxx1112basic_stringIS4_S5_T1_EE(ptr noundef nonnull align 8 dereferenceable(8) %mOutput11, ptr noundef nonnull align 8 dereferenceable(32) %endl)
  br label %for.inc13

for.inc13:                                        ; preds = %for.end
  %17 = load i32, ptr %i, align 4
  %inc14 = add i32 %17, 1
  store i32 %inc14, ptr %i, align 4
  br label %for.cond, !llvm.loop !20

for.end15:                                        ; preds = %for.cond
  ret void
}