; Function Attrs: mustprogress uwtable
define hidden void @_ZN6Assimp11PlyExporter16WriteMeshIndicesEPK6aiMeshj(ptr noundef nonnull align 8 dereferenceable(440) %this, ptr nocapture noundef readonly %m, i32 noundef %offset) local_unnamed_addr #1 align 2 {
entry:
  %mNumFaces = getelementptr inbounds i8, ptr %m, i64 8
  %0 = load i32, ptr %mNumFaces, align 8
  %cmp10.not = icmp eq i32 %0, 0
  br i1 %cmp10.not, label %for.end15, label %for.body.lr.ph

for.body.lr.ph:                                   ; preds = %entry
  %mFaces = getelementptr inbounds i8, ptr %m, i64 208
  %endl = getelementptr inbounds i8, ptr %this, i64 408
  br label %for.body

for.body:                                         ; preds = %for.body.lr.ph, %for.end
  %indvars.iv13 = phi i64 [ 0, %for.body.lr.ph ], [ %indvars.iv.next14, %for.end ]
  %1 = load ptr, ptr %mFaces, align 8
  %arrayidx = getelementptr inbounds %struct.aiFace, ptr %1, i64 %indvars.iv13
  %2 = load i32, ptr %arrayidx, align 8
  %call = tail call noundef nonnull align 8 dereferenceable(8) ptr @_ZNSolsEj(ptr noundef nonnull align 8 dereferenceable(8) %this, i32 noundef %2)
  %3 = load i32, ptr %arrayidx, align 8
  %cmp48.not = icmp eq i32 %3, 0
  br i1 %cmp48.not, label %for.end, label %for.body5.lr.ph

for.body5.lr.ph:                                  ; preds = %for.body
  %mIndices = getelementptr inbounds i8, ptr %arrayidx, i64 8
  br label %for.body5

for.body5:                                        ; preds = %for.body5.lr.ph, %for.body5
  %indvars.iv = phi i64 [ 0, %for.body5.lr.ph ], [ %indvars.iv.next, %for.body5 ]
  %call7 = tail call noundef nonnull align 8 dereferenceable(8) ptr @_ZStlsISt11char_traitsIcEERSt13basic_ostreamIcT_ES5_PKc(ptr noundef nonnull align 8 dereferenceable(8) %this, ptr noundef nonnull @.str.39)
  %4 = load ptr, ptr %mIndices, align 8
  %arrayidx9 = getelementptr inbounds i32, ptr %4, i64 %indvars.iv
  %5 = load i32, ptr %arrayidx9, align 4
  %add = add i32 %5, %offset
  %call10 = tail call noundef nonnull align 8 dereferenceable(8) ptr @_ZNSolsEj(ptr noundef nonnull align 8 dereferenceable(8) %call7, i32 noundef %add)
  %indvars.iv.next = add nuw nsw i64 %indvars.iv, 1
  %6 = load i32, ptr %arrayidx, align 8
  %7 = zext i32 %6 to i64
  %cmp4 = icmp ult i64 %indvars.iv.next, %7
  br i1 %cmp4, label %for.body5, label %for.end, !llvm.loop !15

for.end:                                          ; preds = %for.body5, %for.body
  %call12 = tail call noundef nonnull align 8 dereferenceable(8) ptr @_ZStlsIcSt11char_traitsIcESaIcEERSt13basic_ostreamIT_T0_ES7_RKNSt7__cxx1112basic_stringIS4_S5_T1_EE(ptr noundef nonnull align 8 dereferenceable(8) %this, ptr noundef nonnull align 8 dereferenceable(32) %endl)
  %indvars.iv.next14 = add nuw nsw i64 %indvars.iv13, 1
  %8 = load i32, ptr %mNumFaces, align 8
  %9 = zext i32 %8 to i64
  %cmp = icmp ult i64 %indvars.iv.next14, %9
  br i1 %cmp, label %for.body, label %for.end15, !llvm.loop !16

for.end15:                                        ; preds = %for.end, %entry
  ret void
}